target datalayout = "e-m:e-p270:32:32-p271:32:32-p272:64:64-i64:64-i128:128-f80:128-n8:16:32:64-S128"
target triple = "x86_64-pc-linux-gnu"

%"struct.OpenImageIO::v3_1_0::oiioexr_filebuf_struct" = type { ptr, ptr }

; Function Attrs: mustprogress uwtable
define internal noundef i64 @_ZN11OpenImageIO6v3_1_0L24oiio_exr_query_size_funcEPK19_priv_exr_context_tPv(ptr noundef %0, ptr noundef %1) #6 {
  %3 = alloca i64, align 8
  %4 = alloca ptr, align 8
  %5 = alloca ptr, align 8
  %6 = alloca ptr, align 8
  %7 = alloca i32, align 4
  store ptr %0, ptr %4, align 8, !tbaa !108
  store ptr %1, ptr %5, align 8, !tbaa !109
  call void @llvm.lifetime.start.p0(i64 8, ptr %6) #5
  %8 = load ptr, ptr %5, align 8, !tbaa !109
  store ptr %8, ptr %6, align 8, !tbaa !82
  %9 = load ptr, ptr %6, align 8, !tbaa !82
  %10 = icmp ne ptr %9, null
  br i1 %10, label %11, label %19

11:                                               ; preds = %2
  %12 = load ptr, ptr %6, align 8, !tbaa !82
  %13 = getelementptr inbounds nuw %"struct.OpenImageIO::v3_1_0::oiioexr_filebuf_struct", ptr %12, i32 0, i32 1
  %14 = load ptr, ptr %13, align 8, !tbaa !85
  %15 = load ptr, ptr %14, align 8, !tbaa !26
  %16 = getelementptr inbounds ptr, ptr %15, i64 5
  %17 = load ptr, ptr %16, align 8
  %18 = call noundef i64 %17(ptr noundef nonnull align 8 dereferenceable(88) %14)
  store i64 %18, ptr %3, align 8
  store i32 1, ptr %7, align 4
  br label %20

19:                                               ; preds = %2
  store i64 -1, ptr %3, align 8
  store i32 1, ptr %7, align 4
  br label %20

20:                                               ; preds = %19, %11
  call void @llvm.lifetime.end.p0(i64 8, ptr %6) #5
  %21 = load i64, ptr %3, align 8
  ret i64 %21
}