; Function Attrs: mustprogress uwtable
define internal noundef i64 @_ZN11OpenImageIO6v3_1_0L24oiio_exr_query_size_funcEPK19_priv_exr_context_tPv(ptr readnone captures(none) %0, ptr noundef readonly %1) #5 {
  %.not = icmp eq ptr %1, null
  br i1 %.not, label %10, label %3

3:                                                ; preds = %2
  %4 = getelementptr inbounds nuw i8, ptr %1, i64 8
  %5 = load ptr, ptr %4, align 8, !tbaa !90
  %6 = load ptr, ptr %5, align 8, !tbaa !3
  %7 = getelementptr inbounds nuw i8, ptr %6, i64 40
  %8 = load ptr, ptr %7, align 8
  %9 = tail call noundef i64 %8(ptr noundef nonnull align 8 dereferenceable(88) %5)
  br label %10

10:                                               ; preds = %2, %3
  %.0 = phi i64 [ %9, %3 ], [ -1, %2 ]
  ret i64 %.0
}